(dp1
S'count'
p2
I19
sS'card_list'
p3
(lp4
(ibase.obj
CardModel
p5
(dp6
S'card_type'
p7
VShield
p8
sS'card_id'
p9
L1L
sba(ibase.obj
CardModel
p10
(dp11
g7
VShield
p12
sg9
L2L
sba(ibase.obj
CardModel
p13
(dp14
g7
VShield
p15
sg9
L4L
sba(ibase.obj
CardModel
p16
(dp17
g7
VShield
p18
sg9
L6L
sba(ibase.obj
CardModel
p19
(dp20
g7
VShield
p21
sg9
L7L
sba(ibase.obj
CardModel
p22
(dp23
g7
VShield
p24
sg9
L8L
sba(ibase.obj
CardModel
p25
(dp26
g7
VShield
p27
sg9
L9L
sba(ibase.obj
CardModel
p28
(dp29
g7
VShield
p30
sg9
L10L
sba(ibase.obj
CardModel
p31
(dp32
g7
VShield
p33
sg9
L11L
sba(ibase.obj
CardModel
p34
(dp35
g7
VShield
p36
sg9
L12L
sba(ibase.obj
CardModel
p37
(dp38
g7
VWeapon
p39
sg9
L2L
sba(ibase.obj
CardModel
p40
(dp41
g7
VWeapon
p42
sg9
L4L
sba(ibase.obj
CardModel
p43
(dp44
g7
VWeapon
p45
sg9
L5L
sba(ibase.obj
CardModel
p46
(dp47
g7
VWeapon
p48
sg9
L6L
sba(ibase.obj
CardModel
p49
(dp50
g7
VWeapon
p51
sg9
L7L
sba(ibase.obj
CardModel
p52
(dp53
g7
VWeapon
p54
sg9
L8L
sba(ibase.obj
CardModel
p55
(dp56
g7
VWeapon
p57
sg9
L9L
sba(ibase.obj
CardModel
p58
(dp59
g7
VWeapon
p60
sg9
L10L
sba(ibase.obj
CardModel
p61
(dp62
g7
VWeapon
p63
sg9
L11L
sbas.