(lp1
(ibase.obj
ProbabilityModel
p2
(dp3
S'value'
p4
I50
sS'name'
p5
S'\xe5\x8d\xa1\xe7\x89\x8c'
p6
sS'key'
p7
S'card'
p8
sba(ibase.obj
ProbabilityModel
p9
(dp10
g4
I20
sg5
S'\xe7\xbb\x8f\xe9\xaa\x8c'
p11
sg7
S'xp'
p12
sba(ibase.obj
ProbabilityModel
p13
(dp14
g4
I20
sg5
S'\xe9\x93\xb6\xe5\xb8\x81'
p15
sg7
S'vm'
p16
sba(ibase.obj
ProbabilityModel
p17
(dp18
g4
I10
sg5
S'\xe6\x97\xa0'
p19
sg7
S'nothing'
p20
sba.