(dp1
S'count'
p2
I112
sS'card_list'
p3
(lp4
(ibase.obj
CardModel
p5
(dp6
S'card_type'
p7
VGeneral
p8
sS'card_id'
p9
L5L
sba(ibase.obj
CardModel
p10
(dp11
g7
VGeneral
p12
sg9
L6L
sba(ibase.obj
CardModel
p13
(dp14
g7
VGeneral
p15
sg9
L7L
sba(ibase.obj
CardModel
p16
(dp17
g7
VGeneral
p18
sg9
L8L
sba(ibase.obj
CardModel
p19
(dp20
g7
VGeneral
p21
sg9
L14L
sba(ibase.obj
CardModel
p22
(dp23
g7
VGeneral
p24
sg9
L15L
sba(ibase.obj
CardModel
p25
(dp26
g7
VTreasurePart
p27
sg9
L13L
sba(ibase.obj
CardModel
p28
(dp29
g7
VTreasurePart
p30
sg9
L14L
sba(ibase.obj
CardModel
p31
(dp32
g7
VTreasurePart
p33
sg9
L15L
sba(ibase.obj
CardModel
p34
(dp35
g7
VTreasurePart
p36
sg9
L16L
sba(ibase.obj
CardModel
p37
(dp38
g7
VTreasurePart
p39
sg9
L17L
sba(ibase.obj
CardModel
p40
(dp41
g7
VTreasurePart
p42
sg9
L18L
sba(ibase.obj
CardModel
p43
(dp44
g7
VTreasurePart
p45
sg9
L19L
sba(ibase.obj
CardModel
p46
(dp47
g7
VTreasurePart
p48
sg9
L20L
sba(ibase.obj
CardModel
p49
(dp50
g7
VTreasurePart
p51
sg9
L21L
sba(ibase.obj
CardModel
p52
(dp53
g7
VTreasurePart
p54
sg9
L22L
sba(ibase.obj
CardModel
p55
(dp56
g7
VTreasurePart
p57
sg9
L23L
sba(ibase.obj
CardModel
p58
(dp59
g7
VTreasurePart
p60
sg9
L24L
sba(ibase.obj
CardModel
p61
(dp62
g7
VTreasurePart
p63
sg9
L25L
sba(ibase.obj
CardModel
p64
(dp65
g7
VTreasurePart
p66
sg9
L26L
sba(ibase.obj
CardModel
p67
(dp68
g7
VSecretBookPart
p69
sg9
L13L
sba(ibase.obj
CardModel
p70
(dp71
g7
VSecretBookPart
p72
sg9
L14L
sba(ibase.obj
CardModel
p73
(dp74
g7
VSecretBookPart
p75
sg9
L15L
sba(ibase.obj
CardModel
p76
(dp77
g7
VSecretBookPart
p78
sg9
L16L
sba(ibase.obj
CardModel
p79
(dp80
g7
VSecretBookPart
p81
sg9
L17L
sba(ibase.obj
CardModel
p82
(dp83
g7
VSecretBookPart
p84
sg9
L18L
sba(ibase.obj
CardModel
p85
(dp86
g7
VSecretBookPart
p87
sg9
L19L
sba(ibase.obj
CardModel
p88
(dp89
g7
VSecretBookPart
p90
sg9
L20L
sba(ibase.obj
CardModel
p91
(dp92
g7
VSecretBookPart
p93
sg9
L21L
sba(ibase.obj
CardModel
p94
(dp95
g7
VSecretBookPart
p96
sg9
L22L
sba(ibase.obj
CardModel
p97
(dp98
g7
VSecretBookPart
p99
sg9
L23L
sba(ibase.obj
CardModel
p100
(dp101
g7
VSecretBookPart
p102
sg9
L24L
sba(ibase.obj
CardModel
p103
(dp104
g7
VSecretBookPart
p105
sg9
L25L
sba(ibase.obj
CardModel
p106
(dp107
g7
VSecretBookPart
p108
sg9
L26L
sba(ibase.obj
CardModel
p109
(dp110
g7
VGeneral
p111
sg9
L48L
sba(ibase.obj
CardModel
p112
(dp113
g7
VGeneral
p114
sg9
L49L
sba(ibase.obj
CardModel
p115
(dp116
g7
VGeneral
p117
sg9
L50L
sba(ibase.obj
CardModel
p118
(dp119
g7
VGeneral
p120
sg9
L51L
sba(ibase.obj
CardModel
p121
(dp122
g7
VGeneral
p123
sg9
L52L
sba(ibase.obj
CardModel
p124
(dp125
g7
VGeneral
p126
sg9
L53L
sba(ibase.obj
CardModel
p127
(dp128
g7
VGeneral
p129
sg9
L54L
sba(ibase.obj
CardModel
p130
(dp131
g7
VGeneral
p132
sg9
L55L
sba(ibase.obj
CardModel
p133
(dp134
g7
VGeneral
p135
sg9
L56L
sba(ibase.obj
CardModel
p136
(dp137
g7
VGeneral
p138
sg9
L57L
sba(ibase.obj
CardModel
p139
(dp140
g7
VGeneral
p141
sg9
L58L
sba(ibase.obj
CardModel
p142
(dp143
g7
VGeneral
p144
sg9
L59L
sba(ibase.obj
CardModel
p145
(dp146
g7
VGeneral
p147
sg9
L60L
sba(ibase.obj
CardModel
p148
(dp149
g7
VGeneral
p150
sg9
L61L
sba(ibase.obj
CardModel
p151
(dp152
g7
VGeneral
p153
sg9
L62L
sba(ibase.obj
CardModel
p154
(dp155
g7
VGeneral
p156
sg9
L63L
sba(ibase.obj
CardModel
p157
(dp158
g7
VGeneral
p159
sg9
L64L
sba(ibase.obj
CardModel
p160
(dp161
g7
VGeneral
p162
sg9
L65L
sba(ibase.obj
CardModel
p163
(dp164
g7
VGeneral
p165
sg9
L66L
sba(ibase.obj
CardModel
p166
(dp167
g7
VGeneral
p168
sg9
L67L
sba(ibase.obj
CardModel
p169
(dp170
g7
VGeneral
p171
sg9
L68L
sba(ibase.obj
CardModel
p172
(dp173
g7
VGeneral
p174
sg9
L69L
sba(ibase.obj
CardModel
p175
(dp176
g7
VGeneral
p177
sg9
L70L
sba(ibase.obj
CardModel
p178
(dp179
g7
VGeneral
p180
sg9
L71L
sba(ibase.obj
CardModel
p181
(dp182
g7
VGeneral
p183
sg9
L72L
sba(ibase.obj
CardModel
p184
(dp185
g7
VGeneral
p186
sg9
L73L
sba(ibase.obj
CardModel
p187
(dp188
g7
VGeneral
p189
sg9
L74L
sba(ibase.obj
CardModel
p190
(dp191
g7
VGeneral
p192
sg9
L81L
sba(ibase.obj
CardModel
p193
(dp194
g7
VGeneral
p195
sg9
L82L
sba(ibase.obj
CardModel
p196
(dp197
g7
VGeneral
p198
sg9
L83L
sba(ibase.obj
CardModel
p199
(dp200
g7
VGeneral
p201
sg9
L84L
sba(ibase.obj
CardModel
p202
(dp203
g7
VGeneral
p204
sg9
L85L
sba(ibase.obj
CardModel
p205
(dp206
g7
VGeneral
p207
sg9
L86L
sba(ibase.obj
CardModel
p208
(dp209
g7
VGeneral
p210
sg9
L87L
sba(ibase.obj
CardModel
p211
(dp212
g7
VGeneral
p213
sg9
L88L
sba(ibase.obj
CardModel
p214
(dp215
g7
VGeneral
p216
sg9
L89L
sba(ibase.obj
CardModel
p217
(dp218
g7
VGeneral
p219
sg9
L90L
sba(ibase.obj
CardModel
p220
(dp221
g7
VGeneral
p222
sg9
L91L
sba(ibase.obj
CardModel
p223
(dp224
g7
VGeneral
p225
sg9
L92L
sba(ibase.obj
CardModel
p226
(dp227
g7
VGeneral
p228
sg9
L93L
sba(ibase.obj
CardModel
p229
(dp230
g7
VGeneral
p231
sg9
L94L
sba(ibase.obj
CardModel
p232
(dp233
g7
VGeneral
p234
sg9
L95L
sba(ibase.obj
CardModel
p235
(dp236
g7
VGeneral
p237
sg9
L96L
sba(ibase.obj
CardModel
p238
(dp239
g7
VGeneral
p240
sg9
L97L
sba(ibase.obj
CardModel
p241
(dp242
g7
VGeneral
p243
sg9
L98L
sba(ibase.obj
CardModel
p244
(dp245
g7
VGeneral
p246
sg9
L99L
sba(ibase.obj
CardModel
p247
(dp248
g7
VGeneral
p249
sg9
L100L
sba(ibase.obj
CardModel
p250
(dp251
g7
VGeneral
p252
sg9
L101L
sba(ibase.obj
CardModel
p253
(dp254
g7
VGeneral
p255
sg9
L102L
sba(ibase.obj
CardModel
p256
(dp257
g7
VGeneral
p258
sg9
L103L
sba(ibase.obj
CardModel
p259
(dp260
g7
VGeneral
p261
sg9
L104L
sba(ibase.obj
CardModel
p262
(dp263
g7
VGeneral
p264
sg9
L105L
sba(ibase.obj
CardModel
p265
(dp266
g7
VGeneral
p267
sg9
L106L
sba(ibase.obj
CardModel
p268
(dp269
g7
VGeneral
p270
sg9
L107L
sba(ibase.obj
CardModel
p271
(dp272
g7
VGeneral
p273
sg9
L108L
sba(ibase.obj
CardModel
p274
(dp275
g7
VGeneral
p276
sg9
L109L
sba(ibase.obj
CardModel
p277
(dp278
g7
VGeneral
p279
sg9
L110L
sba(ibase.obj
CardModel
p280
(dp281
g7
VGeneral
p282
sg9
L111L
sba(ibase.obj
CardModel
p283
(dp284
g7
VGeneral
p285
sg9
L112L
sba(ibase.obj
CardModel
p286
(dp287
g7
VGeneral
p288
sg9
L113L
sba(ibase.obj
CardModel
p289
(dp290
g7
VGeneral
p291
sg9
L114L
sba(ibase.obj
CardModel
p292
(dp293
g7
VGeneral
p294
sg9
L115L
sba(ibase.obj
CardModel
p295
(dp296
g7
VGeneral
p297
sg9
L116L
sba(ibase.obj
CardModel
p298
(dp299
g7
VGeneral
p300
sg9
L117L
sba(ibase.obj
CardModel
p301
(dp302
g7
VGeneral
p303
sg9
L118L
sba(ibase.obj
CardModel
p304
(dp305
g7
VGeneral
p306
sg9
L119L
sba(ibase.obj
CardModel
p307
(dp308
g7
VGeneral
p309
sg9
L120L
sba(ibase.obj
CardModel
p310
(dp311
g7
VGeneral
p312
sg9
L121L
sba(ibase.obj
CardModel
p313
(dp314
g7
VGeneral
p315
sg9
L122L
sba(ibase.obj
CardModel
p316
(dp317
g7
VGeneral
p318
sg9
L123L
sba(ibase.obj
CardModel
p319
(dp320
g7
VGeneral
p321
sg9
L124L
sba(ibase.obj
CardModel
p322
(dp323
g7
VGeneral
p324
sg9
L125L
sba(ibase.obj
CardModel
p325
(dp326
g7
VGeneral
p327
sg9
L126L
sba(ibase.obj
CardModel
p328
(dp329
g7
VGeneral
p330
sg9
L127L
sba(ibase.obj
CardModel
p331
(dp332
g7
VGeneral
p333
sg9
L128L
sba(ibase.obj
CardModel
p334
(dp335
g7
VGeneral
p336
sg9
L129L
sba(ibase.obj
CardModel
p337
(dp338
g7
VGeneral
p339
sg9
L130L
sba(ibase.obj
CardModel
p340
(dp341
g7
VGeneral
p342
sg9
L131L
sbas.